(dp1
S'output'
p2
S"<type 'exceptions.ValueError'> invalid literal for float(): 12312,234"
p3
sS'layer'
p4
S'/home/filhofilha/Documents/Deployment/Web2Py/web2py/applications/perimoveis/controllers/product.py'
p5
sS'code'
p6
S"# -*- coding: utf-8 -*-\n\n\n\n\ndef index():\n\n    return dict(mRows=db(db.tbProducts.id>0).select())\n\n\n\n@auth.requires_login()\ndef add():\n    Validator.admin()\n\n    mForm=SQLFORM(db.tbProducts, submit_button=T('Add a product'))\n\n    Validator.form_process(mForm, URL('product', 'index'))\n\n    return dict(mForm=mForm)\n\n\n\n@auth.requires_login()\ndef edit():\n    Validator.admin()\n    Validator.valide_args(1)\n\n    return dict(mForm=SQLFORM(db.tbProducts,\n                db.tbProducts(request.args[0]),\n                submit_button=T('Save changes')))\n\nresponse._vars=response._caller(index)\n"
p7
sS'snapshot'
p8
(dp9
sS'traceback'
p10
S'Traceback (most recent call last):\n  File "/home/filhofilha/Documents/Deployment/Web2Py/web2py/gluon/restricted.py", line 227, in restricted\n    exec ccode in environment\n  File "/home/filhofilha/Documents/Deployment/Web2Py/web2py/applications/perimoveis/controllers/product.py", line 33, in <module>\n  File "/home/filhofilha/Documents/Deployment/Web2Py/web2py/gluon/globals.py", line 412, in <lambda>\n    self._caller = lambda f: f()\n  File "/home/filhofilha/Documents/Deployment/Web2Py/web2py/applications/perimoveis/controllers/product.py", line 8, in index\n    return dict(mRows=db(db.tbProducts.id>0).select())\n  File "/home/filhofilha/Documents/Deployment/Web2Py/web2py/gluon/packages/dal/pydal/objects.py", line 2025, in select\n    return adapter.select(self.query,fields,attributes)\n  File "/home/filhofilha/Documents/Deployment/Web2Py/web2py/gluon/packages/dal/pydal/adapters/sqlite.py", line 124, in select\n    return super(SQLiteAdapter, self).select(query, fields, attributes)\n  File "/home/filhofilha/Documents/Deployment/Web2Py/web2py/gluon/packages/dal/pydal/adapters/base.py", line 1293, in select\n    return self._select_aux(sql,fields,attributes)\n  File "/home/filhofilha/Documents/Deployment/Web2Py/web2py/gluon/packages/dal/pydal/adapters/base.py", line 1274, in _select_aux\n    return processor(rows,fields,self._colnames,cacheable=cacheable)\n  File "/home/filhofilha/Documents/Deployment/Web2Py/web2py/gluon/packages/dal/pydal/adapters/base.py", line 1764, in parse\n    for row in rows]\n  File "/home/filhofilha/Documents/Deployment/Web2Py/web2py/gluon/packages/dal/pydal/adapters/base.py", line 1674, in _parse\n    value = self.parse_value(value, ft, blob_decode)\n  File "/home/filhofilha/Documents/Deployment/Web2Py/web2py/gluon/packages/dal/pydal/adapters/base.py", line 1524, in parse_value\n    return self.parsemap[key](value,field_type)\n  File "/home/filhofilha/Documents/Deployment/Web2Py/web2py/gluon/packages/dal/pydal/adapters/base.py", line 1625, in parse_double\n    return float(value)\nValueError: invalid literal for float(): 12312,234\n'
p11
s.