(dp1
S'output'
p2
S"<type 'exceptions.TypeError'> __init__() takes exactly 2 arguments (1 given)"
p3
sS'layer'
p4
S'/home/filhofilha/Documents/Deployment/Web2Py/web2py/applications/perimoveis/controllers/manager.py'
p5
sS'code'
p6
S'# -*- coding: utf-8 -*-\n\n\n\n\n\n@auth.requires_login()\ndef index():\n\n    return dict()\n\n\n\n@auth.requires_login()\ndef home_slide_resources():\n\n    return dict(mRows=db(db.tbHomePageSlideResources.id>0).select())\n\n\n@auth.requires_login()\ndef add_home_slide_resource():\n\n    mForm = SQLFORM(db.tbHomePageSlideResources, submit_button=T(\'Submit\'))\n\n    Validator.form_process(mForm, URL("manager", "home_slide_resources"), mOnAccepted=add_home_slide_resource_accepted)\n\n    return dict(mForm=mForm)\n\n@auth.requires_login()\ndef add_home_slide_resource_accepted(mForm):\n    #Adding thumbnail.\n    from lib_thumbnail import Thumbnail\n    mRow = db.tbHomePageSlideResources(mForm.vars.id)\n    db(db.tbHomePageSlideResources.id==mForm.vars.id).update(mThumbnail=Thumbnail.toThumbnail(mRow.mImage))\n    pass\n\n\ndef download():\n    return response.download(request, db)\n\ndef remove_image():\n\n    Validator.valide_args(1)\n\n    mFile = db.tbHomePageSlideResources(request.args[0])\n    import os\n    os.remove(request.folder + \'uploads/\'+mFile.mThumbnail)\n\n    db(db.tbHomePageSlideResources.id==mFile.id).delete()\n\n    MessageBox().showSuccess(T(\'File\') + \' <b>\'+mFile.mLabel+\'</b> \' + T(\'removed!\'))\n    redirect(URL(\'manager\', \'index\'))\n    pass\n\nresponse._vars=response._caller(remove_image)\n'
p7
sS'snapshot'
p8
(dp9
sS'traceback'
p10
S'Traceback (most recent call last):\n  File "/home/filhofilha/Documents/Deployment/Web2Py/web2py/gluon/restricted.py", line 227, in restricted\n    exec ccode in environment\n  File "/home/filhofilha/Documents/Deployment/Web2Py/web2py/applications/perimoveis/controllers/manager.py", line 55, in <module>\n  File "/home/filhofilha/Documents/Deployment/Web2Py/web2py/gluon/globals.py", line 412, in <lambda>\n    self._caller = lambda f: f()\n  File "/home/filhofilha/Documents/Deployment/Web2Py/web2py/applications/perimoveis/controllers/manager.py", line 51, in remove_image\n    MessageBox().showSuccess(T(\'File\') + \' <b>\'+mFile.mLabel+\'</b> \' + T(\'removed!\'))\nTypeError: __init__() takes exactly 2 arguments (1 given)\n'
p11
s.