(dp1
S'output'
p2
S"<type 'exceptions.NameError'> name 'Thumbnail' is not defined"
p3
sS'layer'
p4
S'/home/filhofilha/Documents/Deployment/Web2Py/web2py/applications/perimoveis/controllers/manager.py'
p5
sS'code'
p6
S'# -*- coding: utf-8 -*-\n\n\n\n\n\n@auth.requires_login()\ndef index():\n\n    return dict()\n\n\n\n@auth.requires_login()\ndef home_slide_resources():\n\n    return dict(mRows=db(db.tbHomePageSlideResources.id>0).select())\n\n\n@auth.requires_login()\ndef add_home_slide_resource():\n\n    mForm = SQLFORM(db.tbHomePageSlideResources, submit_button=T(\'Submit\'))\n\n    Validator().form_process(mForm, URL("manager", "home_slide_resources"), mValidation=add_home_slide_resource_validator)\n\n    return dict(mForm=mForm)\n\ndef add_home_slide_resource_validator(mForm, mVars=[\'mFile\', \'mThumbnail\']):\n    from thumbnail import *\n    mForm.vars[mVars[1]] = Thumbnail.toThumbnail(mForm.vars[mVars[0]])\n    pass\n\n\ndef download():\n    return response.download(request, db)\n\nresponse._vars=response._caller(add_home_slide_resource)\n'
p7
sS'snapshot'
p8
(dp9
sS'traceback'
p10
S'Traceback (most recent call last):\n  File "/home/filhofilha/Documents/Deployment/Web2Py/web2py/gluon/restricted.py", line 227, in restricted\n    exec ccode in environment\n  File "/home/filhofilha/Documents/Deployment/Web2Py/web2py/applications/perimoveis/controllers/manager.py", line 38, in <module>\n  File "/home/filhofilha/Documents/Deployment/Web2Py/web2py/gluon/globals.py", line 412, in <lambda>\n    self._caller = lambda f: f()\n  File "/home/filhofilha/Documents/Deployment/Web2Py/web2py/gluon/tools.py", line 4236, in f\n    return action(*a, **b)\n  File "/home/filhofilha/Documents/Deployment/Web2Py/web2py/applications/perimoveis/controllers/manager.py", line 25, in add_home_slide_resource\n    Validator().form_process(mForm, URL("manager", "home_slide_resources"), mValidation=add_home_slide_resource_validator)\n  File "/home/filhofilha/Documents/Deployment/Web2Py/web2py/applications/perimoveis/models/lib.py", line 288, in form_process\n    processed = mForm.process(onvalidation=mValidation)\n  File "/home/filhofilha/Documents/Deployment/Web2Py/web2py/gluon/html.py", line 2304, in process\n    self.validate(**kwargs)\n  File "/home/filhofilha/Documents/Deployment/Web2Py/web2py/gluon/html.py", line 2241, in validate\n    if self.accepts(**kwargs):\n  File "/home/filhofilha/Documents/Deployment/Web2Py/web2py/gluon/sqlhtml.py", line 1505, in accepts\n    **kwargs\n  File "/home/filhofilha/Documents/Deployment/Web2Py/web2py/gluon/html.py", line 2142, in accepts\n    call_as_list(onvalidation, self)\n  File "/home/filhofilha/Documents/Deployment/Web2Py/web2py/gluon/html.py", line 146, in call_as_list\n    item(*a, **b)\n  File "/home/filhofilha/Documents/Deployment/Web2Py/web2py/applications/perimoveis/controllers/manager.py", line 30, in add_home_slide_resource_validator\n    from thumbnail import *\n  File "/home/filhofilha/Documents/Deployment/Web2Py/web2py/gluon/custom_import.py", line 95, in custom_importer\n    return base_importer(pname, globals, locals, fromlist, level)\n  File "applications/perimoveis/modules/thumbnail.py", line 9, in <module>\n    class Thumbnail:\n  File "applications/perimoveis/modules/thumbnail.py", line 16, in Thumbnail\n    def toThumbnail(image, box=Thumbnail.dimensionDefault(), fit=True, name="thumb"):\nNameError: name \'Thumbnail\' is not defined\n'
p11
s.