(dp1
S'output'
p2
S"<type 'exceptions.IndentationError'> unindent does not match any outer indentation level (lib.py, line 119)"
p3
sS'layer'
p4
S'/Users/fabiofilho/Documents/Deployment/Web2Py/web2py/applications/perimoveis/models/lib.py'
p5
sS'code'
p6
S'# -*- coding: utf-8 -*-\n\n\n\nclass MessageBox:\n\n\tdef __init__ (self, mMessage):\n\t\tsession.flash = mMessage\n\t\tpass\n\n\tdef showWarning(self):\n\t\tresponse.mMessageBox_Theme = "warning"\n\t\tresponse.mMessageBox_Icon  = "glyphicon glyphicon-warning-sign"\n\t\tresponse.mShowed = False\n\t\tpass\n\n\tdef showSuccess(self):\n\t\tresponse.mMessageBox_Theme = "success"\n\t\tresponse.mMessageBox_Icon  = "glyphicon glyphicon-ok-circle"\n\t\tpass\n\n\tdef showError(self):\n\t\tresponse.mMessageBox_Theme = "danger"\n\t\tresponse.mMessageBox_Icon  = "glyphicon glyphicon-remove-circle"\n\t\tpass\n\n\tdef showInfo(self):\n\t\tresponse.mMessageBox_Theme = "info"\n\t\tresponse.mMessageBox_Icon  = "glyphicon glyphicon-info-sign"\n\t\tpass\n\n\tdef setTimer(mTimer):\n\t\ttry:\n\t\t\tresponse.mMessageBox_Timer = int(mTimer)\n\t\texcept:\n\t\t\tresponse.mMessageBox_Timer = 4000\n\t\tpass\n\n\tdef resetTimer():\n\t\tresponse.mMessageBox_Timer = 4000\n\t\tpass\n\n\n\nclass MyApplication:\n\n    def __init__(self):\n\t\tself.KEY_CONNECTION = "46213fdsfc5f6523d698ca5af2r356gs59c4fd321843813e4cbadasd"\n\t\tpass\n\n    def isValidKey(self):\n\t\ttry:\n\t\t\treturn request.vars.mKey == self.KEY_CONNECTION\n\t\texcept:\n\t\t\tpass\n\n\t\treturn False\n\n     #Get all items of wallet filtering if it is an inflow or an outflow.\n    def getFirstYearDeviceConnectionTable(self, mId):\n \t    #maxID=db(db.tbDeviceConnection.mDevice == mDevice.id).select(db.tbDeviceConnection.id.max()).first()[db.tbDeviceConnection.id.max()]\n \t    mRow = db.tbDeviceConnection(mDevice = mId)\n\n \t    if mRow == None:\n \t        return request.now.year\n \t    else:\n \t        return mRow.mDateTime.year\n\n\n    #Check if device exists.\n    def isDeviceAcceptableByMAC(self):\n\n        if db.tbDevice(mMAC=request.vars.mMAC)==None:\n            return False\n        else:\n            return True\n\n    #Check if device exists.\n    def isDeviceAcceptableById(self):\n\n        if db.tbDevice(id=request.vars.mDeviceId)==None:\n            return False\n        else:\n            return True\n\n\n\n\nclass MyForms:\n\n\tdef __init__(self):\n\t\tpass\n\n\n\t\'\'\'\n\t\tThis method correct the error generated\n\t\tby user when it writes something with quotes....\n\t\'\'\'\n\n\tdef correctStringFields(self, mForm, mVars = [\'mName\']):\n\t\tfor mVar in mVars:\n\t\t\tmForm.vars[mVar] = mForm.vars[mVar].replace(\'"\', "\'")\n\t\tpass\n\n\n\nclass Utilities:\n\n\t@staticmethod\n\tdef get_beautiful_price(mPrice):\n\t    mPrice = str(round(mPrice, 2)).replace(".", ",")\n\n\t    try:\n\t        if mPrice[:-2][len(mPrice[:-2])-1] == ",":\n\t            return mPrice\n\t    except:\n\t        pass\n\n    return mPrice + "0"\n\n\t@staticmethod\n\tdef is_master():\n\t\ttry:\n\t\t\tmAuth = db.auth_user(auth.user_id)\n\t\t\tif mAuth.mIsMaster:\n\t\t\t\treturn True\n\t\t\telse:\n\t\t\t\treturn False\n\t\t\tpass\n\t\texcept Exception as e:\n\t\t\treturn False\n\n\n\t@staticmethod\n\tdef is_admin():\n\t\ttry:\n\t\t\tmAuth = db.auth_user(auth.user_id)\n\t\t\tif mAuth.mIsAdmin or mAuth.mIsMaster:\n\t\t\t\treturn True\n\t\t\telse:\n\t\t\t\treturn False\n\t\t\tpass\n\t\texcept Exception as e:\n\t\t\treturn False\n\n\t#Get date to make a query in the future.\n\tdef getDate(self, mYearIndex=1, mMonthIndex=2, mDayIndex=3 ):\n\n\t    mDay   = request.now.day\n\t    mYear  = request.now.year\n\t    mMonth = request.now.month\n\n\t    try:\n\t        if(len(request.args) >= 4):\n\t\t        #Check if the year is valid.\n\t\t        if request.args[mYearIndex]>0:\n\t\t            #Check if the month is correct.\n\t\t            if (int(request.args[mMonthIndex]) > 0) and (int(request.args[mMonthIndex]) < 13) :\n\t\t                #Check if the day is correct.\n\t\t                if (int(request.args[mDayIndex]) > 0) and (int(request.args[mDayIndex]) < 32) :\n\t\t                    return request.args[mYearIndex], request.args[mMonthIndex], request.args[mDayIndex]\n\n\t    except Exception as mError:\n\t        print "getDate", mError\n\n\t    return mYear, mMonth, mDay\n\n\n\n\t#Get a beautiful datetime.\n\t@staticmethod\n\tdef adjustDateTime(mValue=request.now):\n\n\t\treturn mValue.strftime("%d/%m/%Y - %Hh %Mm")\n\n\n\t#Get month name by a number.\n\tdef getMonthName(self, mMonth):\n\n\t\t    mMonth = int(mMonth)\n\t\t    if mMonth == 1:\n\t\t        return T(\'January\')\n\t\t    if mMonth == 2:\n\t\t        return T(\'February\')\n\t\t    if mMonth == 3:\n\t\t        return T(\'March\')\n\t\t    if mMonth == 4:\n\t\t        return T(\'April\')\n\t\t    if mMonth == 5:\n\t\t        return T(\'May\')\n\t\t    if mMonth == 6:\n\t\t        return T(\'June\')\n\t\t    if mMonth == 7:\n\t\t        return T(\'July\')\n\t\t    if mMonth == 8:\n\t\t        return T(\'August\')\n\t\t    if mMonth == 9:\n\t\t        return T(\'September\')\n\t\t    if mMonth == 10:\n\t\t        return T(\'October\')\n\t\t    if mMonth == 11:\n\t\t        return T(\'November\')\n\t\t    if mMonth == 12:\n\t\t        return T(\'December\')\n\n\t\t    return T("No valid month.")\n\n\n\nclass Convert:\n\n\t\t@staticmethod\n\t\tdef toString(mData):\n\t\t\ttry:\n\t\t\t\treturn mData.encode(\'utf-8\')\n\t\t\texcept:\n\t\t\t\treturn str(mData)\n\n\n\t\t@staticmethod\n\t\tdef dateTimeToInt(mData):\n\t\t\ttry:\n\t\t\t\treturn int( str(mData).replace(" ", "").replace("/", "").replace("-", "").replace(":", "") )\n\t\t\texcept:\n\t\t\t\treturn 0\n\n\n\n\t\t@staticmethod\n\t\tdef intToDateTime(mData):\n\t\t\tfrom datetime import datetime\n\t\t\ttry:\n\t\t\t\tmTemp = str( mData )\n\t\t\t\tmResult = mTemp[0:4] + \'-\' + mTemp[4:6] + \'-\' + mTemp[6:8] + \' \'\n\t\t\t\tmResult += mTemp[8:10] + \':\' + mTemp[10:12] + \':\' + mTemp[12:14]\n\n\t\t\t\treturn datetime.strptime(mResult, "%Y-%m-%d %H:%M:%S")\n\t\t\texcept mError as Exception:\n\t\t\t\tprint mError\n\t\t\t\treturn request.now\n\n\nclass Validator:\n\n\t@staticmethod\n\tdef master(mPage = URL(\'default\', \'index\')):\n\t\tif not Utilities.is_master():\n\t\t\tredirect(mPage)\n\n\t@staticmethod\n\tdef admin(mPage = URL(\'default\', \'index\')):\n\t\tif not Utilities.is_admin():\n\t\t\tredirect(mPage)\n\n\t@staticmethod\n\tdef is_integer( mString):\n\n\t\ttry:\n\t\t\tmNumber = int(mString)\n\t\t\treturn True\n\t\texcept Exception as mError:\n\t\t\tprint "is_integer", mError\n\t\t\treturn False\n\n\n\t@staticmethod\n\tdef has_args( mLength):\n\n\t\tif len(request.args)==mLength:\n\t\t\treturn True\n\t\telse:\n\t\t\treturn False\n\n\n\t@staticmethod\n\tdef has_vars( mLength):\n\n\t\tif len(request.vars)==mLength:\n\t\t\treturn True\n\t\telse:\n\t\t\treturn False\n\n\n\t@staticmethod\n\tdef valide_args( mLength, mUrl = URL(\'default\', \'index\')):\n\t\t#print mLength\n\t\tif not len(request.args)==mLength:\n\t\t\t#print mUrl\n\t\t\tredirect(mUrl)\n\t\tpass\n\n\n\n\t@staticmethod\n\tdef valide_minimum_args( mLength, mUrl = URL(\'default\', \'index\')):\n\t\t#print mLength\n\t\tif not len(request.args)>=mLength:\n\t\t\t#print mUrl\n\t\t\tredirect(mUrl)\n\t\tpass\n\n\n\n\t@staticmethod\n\tdef valide_minimum_vars( mLength, mUrl = URL(\'default\', \'index\')):\n\t\t#print mLength\n\t\tif not len(request.vars)>=mLength:\n\t\t\t#print mUrl\n\t\t\tredirect(mUrl)\n\t\tpass\n\n\n\t@staticmethod\n\tdef has_minimum_vars( mLength, mUrl = URL(\'default\', \'index\')):\n\n\t\tif not len(request.vars)>=mLength:\n\t\t\treturn False\n\n\t\treturn True\n\n\n\n\t@staticmethod\n\tdef form_process( mForm, mUrl = URL(\'default\', \'index\'), mSuccessMessage=T(\'Added successfully!\'),\n\t\t\t\t\t\tmErrorMessage=T(\'Erros in form, please check it out.\'), mValidation=None, mOnAccepted=None, mOnErrors=None):\n\n\t\tprocessed = None\n\n\t\tif mValidation == None:\n\t\t\tprocessed = mForm.process()\n\t\telse:\n\t\t\tprocessed = mForm.process(onvalidation=mValidation)\n\n\t\tif processed.accepted:\n\t\t\tif not mOnAccepted == None:\n\t\t\t\tmOnAccepted(mForm)\n\t\t\tMessageBox(T(mSuccessMessage)).showSuccess()\n\t\t\tif not mUrl == None:\n\t\t\t\tredirect(mUrl)\n\t\telif mForm.errors:\n\t\t\tif not mOnErrors == None:\n\t\t\t\tmOnErrors(mForm)\n\t\t\tMessageBox(T(mErrorMessage)).showError()\n\n\t\tpass\n\n\n\n\n\t@staticmethod\n\tdef check_is_group_owner( mId, mTable, mUrl=URL(\'default\', \'index\')):\n\n\t\ttry:\n\t\t\tmGroup = db.auth_group(id=db(auth.user_id == db.auth_membership.user_id).select()[0].group_id)\n\t\t\tmItem = mTable(mId)\n\n\t\t\tif mGroup == None:\n\t\t\t\tredirect(mUrl)\n\n\t\t\tif not mGroup.id == mItem.mUserGroup:\n\t\t\t\tredirect(mUrl)\n\n\t\texcept mError:\n\t\t\tprint \'check_is_group_owner except\', mError\n\t\t\tprint  mId, mTable, mUrl\n\t\t\tredirect(mUrl)\n\n\n\n\n\t@staticmethod\n\tdef get_date():\n\n\t\tmYear = request.now.year\n\t\tmMonth = request.now.month\n\n\t\ttry:\n\t\t\tint(mYear)\n\t\t\tif has_args(2):\n\t\t\t\tif (int(request.args[1]) > 0) and (int(request.args[1]) < 13) :\n\t\t\t\t\treturn request.args[0], request.args[1]\n\n\t\t\treturn mYear, mMonth\n\t\texcept Exception as mError:\n\t\t\tprint mError\n\t\t\treturn mYear, mMonth\n\n\tpass\n\n\nclass SQL:\n\n\tdef __init__(self):\n\t\tself.mInjetionWords=[\'select\', \'update\', \'delete\', \'drop\', \'table\']\n\t\tpass\n\n\tdef check_string_in_list(self, mField, mWords):\n\t\tmResult = False\n\t\tfor mWord in mWords:\n\t\t\tif mWord in mField:\n\t\t\t\treturn True\n\n\t\treturn mResult\n\n\n\tdef has_injection(self, mFields):\n\t\tmResult = False\n\t\tfor mField in mFields:\n\t\t\tif self.check_string_in_list(mField.lower(), self.mInjetionWords):\n\t\t\t\treturn True\n\n\t\treturn mResult\n\n\n\nimport json\nclass Json:\n\n\t@staticmethod\n\tdef SuccessResult():\n\t\treturn json.dumps([{\'mResult\':\'true\'}])\n\n\n\t@staticmethod\n\tdef FailResult():\n\t\treturn json.dumps([{\'mResult\':\'false\'}])\n\n\t@staticmethod\n\tdef NullResult():\n\t\treturn json.dumps([{"mResult":"NULL"}])\n\n\nclass MyPDF:\n\n\t@staticmethod\n\tdef getConst():\n\t\treturn \'pdf\'\n\n\t@staticmethod\n\tdef isRequestingExport():\n\t\tif request.vars.mExport == MyPDF.getConst():\n\t\t\treturn True\n\t\telse:\n\t\t\treturn False\n\n\n\tdef __init__(self, mHtmlFile, mPageData):\n\n\t\tself.mPageData = mPageData\n\t\tself.mHtmlFile = mHtmlFile\n\t\tpass\n\n\tdef generate(self):\n\t\ttry:\n\t\t\tmHtml = response.render(self.mHtmlFile, self.mPageData)\n\t\t\treturn plugin_appreport.REPORTPISA(html = mHtml)\n\t\texcept Exception as mError:\n\t\t\tprint mError\n\t\t\treturn \'Error pdf export: \'+ str(mError)\n\n\nclass MyFile:\n\n\tdef __init__(self, mPath):\n\t\tself.mPath = mPath\n\t\tself.mFile = None\n\t\tpass\n\n\tdef openWrite(self):\n\t\tself.mFile = open(self.mPath, \'w\')\n\t\tpass\n\n\tdef openRead(self):\n\t\tself.mFile = open(self.mPath, \'r\')\n\t\tpass\n\n\tdef write(self, mData):\n\t\tself.mFile.write(mData)\n\n\tdef writeLine(self, mData):\n\t\tself.mFile.write(mData+\'\\n\')\n\n\tdef read(self):\n\t\treturn self.mFile\n\n\tdef close(self):\n\t\tif not self.mFile == None:\n\t\t\tself.mFile.close()\n\n\tdef remove(self):\n\t\ttry:\n\t\t\timport os\n\t\t\tos.remove(self.mPath)\n\t\t\tpass\n\t\texcept Exception as e:\n\t\t\tprint e\n\n\t@staticmethod\n\tdef exists(mFile):\n\t\timport os.path, os\n\t\tif ( (not os.path.isfile(mFile) ) or (os.stat(mFile).st_size ==0) ):\n\t\t\treturn False\n\t\telse:\n\t\t\treturn True\n'
p7
sS'snapshot'
p8
(dp9
S'exception'
p10
(dp11
S'__getslice__'
p12
S"<method-wrapper '__getslice__' of exceptions.IndentationError object>"
p13
sS'text'
p14
S'\'    return mPrice + "0"\\n\''
p15
sS'__str__'
p16
S"<method-wrapper '__str__' of exceptions.IndentationError object>"
p17
sS'__reduce__'
p18
S'<built-in method __reduce__ of exceptions.IndentationError object>'
p19
sS'__dict__'
p20
S'{}'
p21
sS'__sizeof__'
p22
S'<built-in method __sizeof__ of exceptions.IndentationError object>'
p23
sS'__init__'
p24
S"<method-wrapper '__init__' of exceptions.IndentationError object>"
p25
sS'__setattr__'
p26
S"<method-wrapper '__setattr__' of exceptions.IndentationError object>"
p27
sS'__reduce_ex__'
p28
S'<built-in method __reduce_ex__ of exceptions.IndentationError object>'
p29
sS'__new__'
p30
S'<built-in method __new__ of type object>'
p31
sS'__format__'
p32
S'<built-in method __format__ of exceptions.IndentationError object>'
p33
sS'__class__'
p34
S"<type 'exceptions.IndentationError'>"
p35
sS'filename'
p36
S"'/Users/fabiofilho/Documents/Deployment/Web2Py/web2py/applications/perimoveis/models/lib.py'"
p37
sS'lineno'
p38
S'119'
p39
sS'msg'
p40
S"'unindent does not match any outer indentation level'"
p41
sS'__doc__'
p42
S"'Improper indentation.'"
p43
sS'__getitem__'
p44
S"<method-wrapper '__getitem__' of exceptions.IndentationError object>"
p45
sS'__setstate__'
p46
S'<built-in method __setstate__ of exceptions.IndentationError object>'
p47
sS'__getattribute__'
p48
S"<method-wrapper '__getattribute__' of exceptions.IndentationError object>"
p49
sS'print_file_and_line'
p50
S'None'
p51
sS'args'
p52
S'(\'unindent does not match any outer indentation level\', (\'/Users/fabiofilho/Documents/Deployment/Web2Py/web2py/applications/perimoveis/models/lib.py\', 119, 24, \'    return mPrice + "0"\\n\'))'
p53
sS'__subclasshook__'
p54
S'<built-in method __subclasshook__ of type object>'
p55
sS'offset'
p56
S'24'
p57
sS'__unicode__'
p58
S'<built-in method __unicode__ of exceptions.IndentationError object>'
p59
sS'__delattr__'
p60
S"<method-wrapper '__delattr__' of exceptions.IndentationError object>"
p61
sS'__repr__'
p62
S"<method-wrapper '__repr__' of exceptions.IndentationError object>"
p63
sS'__hash__'
p64
S"<method-wrapper '__hash__' of exceptions.IndentationError object>"
p65
ssS'evalue'
p66
S'unindent does not match any outer indentation level (lib.py, line 119)'
p67
sS'request'
p68
cgluon.html
XML_unpickle
p69
(S's\xf6Y\x00\x00<div><table><tr><td style="font-weight:bold;vertical-align:top;">ajax</td><td style="vertical-align:top;">:</td><td><div>False</div></td></tr><tr><td style="font-weight:bold;vertical-align:top;">application</td><td style="vertical-align:top;">:</td><td><div>perimoveis</div></td></tr><tr><td style="font-weight:bold;vertical-align:top;">args</td><td style="vertical-align:top;">:</td><td><div><table><tr><td><div>13</div></td></tr></table></div></td></tr><tr><td style="font-weight:bold;vertical-align:top;">cid</td><td style="vertical-align:top;">:</td><td><div>None</div></td></tr><tr><td style="font-weight:bold;vertical-align:top;">client</td><td style="vertical-align:top;">:</td><td><div>127.0.0.1</div></td></tr><tr><td style="font-weight:bold;vertical-align:top;">controller</td><td style="vertical-align:top;">:</td><td><div>product</div></td></tr><tr><td style="font-weight:bold;vertical-align:top;">cookies</td><td style="vertical-align:top;">:</td><td><div><table><tr><td style="font-weight:bold;vertical-align:top;">session_id_admin</td><td style="vertical-align:top;">:</td><td><div>127.0.0.1-9e6495f4-c7b2-4d19-b88b-0debb42cf68c<table><tr><td style="font-weight:bold;vertical-align:top;">comment</td><td style="vertical-align:top;">:</td><td><div></div></td></tr><tr><td style="font-weight:bold;vertical-align:top;">domain</td><td style="vertical-align:top;">:</td><td><div></div></td></tr><tr><td style="font-weight:bold;vertical-align:top;">expires</td><td style="vertical-align:top;">:</td><td><div></div></td></tr><tr><td style="font-weight:bold;vertical-align:top;">httponly</td><td style="vertical-align:top;">:</td><td><div></div></td></tr><tr><td style="font-weight:bold;vertical-align:top;">max-age</td><td style="vertical-align:top;">:</td><td><div></div></td></tr><tr><td style="font-weight:bold;vertical-align:top;">path</td><td style="vertical-align:top;">:</td><td><div></div></td></tr><tr><td style="font-weight:bold;vertical-align:top;">secure</td><td style="vertical-align:top;">:</td><td><div></div></td></tr><tr><td style="font-weight:bold;vertical-align:top;">version</td><td style="vertical-align:top;">:</td><td><div></div></td></tr></table></div></td></tr><tr><td style="font-weight:bold;vertical-align:top;">session_id_perimoveis</td><td style="vertical-align:top;">:</td><td><div>127.0.0.1-71d73ded-bfb8-439e-82a7-4e098d041c9c<table><tr><td style="font-weight:bold;vertical-align:top;">comment</td><td style="vertical-align:top;">:</td><td><div></div></td></tr><tr><td style="font-weight:bold;vertical-align:top;">domain</td><td style="vertical-align:top;">:</td><td><div></div></td></tr><tr><td style="font-weight:bold;vertical-align:top;">expires</td><td style="vertical-align:top;">:</td><td><div></div></td></tr><tr><td style="font-weight:bold;vertical-align:top;">httponly</td><td style="vertical-align:top;">:</td><td><div></div></td></tr><tr><td style="font-weight:bold;vertical-align:top;">max-age</td><td style="vertical-align:top;">:</td><td><div></div></td></tr><tr><td style="font-weight:bold;vertical-align:top;">path</td><td style="vertical-align:top;">:</td><td><div></div></td></tr><tr><td style="font-weight:bold;vertical-align:top;">secure</td><td style="vertical-align:top;">:</td><td><div></div></td></tr><tr><td style="font-weight:bold;vertical-align:top;">version</td><td style="vertical-align:top;">:</td><td><div></div></td></tr></table></div></td></tr></table></div></td></tr><tr><td style="font-weight:bold;vertical-align:top;">env</td><td style="vertical-align:top;">:</td><td><div><table><tr><td style="font-weight:bold;vertical-align:top;">HTTP_ACCEPT</td><td style="vertical-align:top;">:</td><td><div>text/html,application/xhtml+xml,application/xml;q=0.9,image/webp,*/*;q=0.8</div></td></tr><tr><td style="font-weight:bold;vertical-align:top;">HTTP_ACCEPT_ENCODING</td><td style="vertical-align:top;">:</td><td><div>gzip, deflate, sdch</div></td></tr><tr><td style="font-weight:bold;vertical-align:top;">HTTP_ACCEPT_LANGUAGE</td><td style="vertical-align:top;">:</td><td><div>pt,en-US;q=0.8,en;q=0.6</div></td></tr><tr><td style="font-weight:bold;vertical-align:top;">HTTP_CACHE_CONTROL</td><td style="vertical-align:top;">:</td><td><div>max-age=0</div></td></tr><tr><td style="font-weight:bold;vertical-align:top;">HTTP_CONNECTION</td><td style="vertical-align:top;">:</td><td><div>keep-alive</div></td></tr><tr><td style="font-weight:bold;vertical-align:top;">HTTP_COOKIE</td><td style="vertical-align:top;">:</td><td><div>session_id_admin=127.0.0.1-9e6495f4-c7b2-4d19-b88b-0debb42cf68c; session_id_perimoveis=127.0.0.1-71d73ded-bfb8-439e-82a7-4e098d041c9c</div></td></tr><tr><td style="font-weight:bold;vertical-align:top;">HTTP_HOST</td><td style="vertical-align:top;">:</td><td><div>localhost:8080</div></td></tr><tr><td style="font-weight:bold;vertical-align:top;">HTTP_UPGRADE_INSECURE_REQUESTS</td><td style="vertical-align:top;">:</td><td><div>1</div></td></tr><tr><td style="font-weight:bold;vertical-align:top;">HTTP_USER_AGENT</td><td style="vertical-align:top;">:</td><td><div>Mozilla/5.0 (Macintosh; Intel Mac OS X 10_11_3) AppleWebKit/537.36 (KHTML, like Gecko) Chrome/49.0.2623.87 Safari/537.36</div></td></tr><tr><td style="font-weight:bold;vertical-align:top;">PATH_INFO</td><td style="vertical-align:top;">:</td><td><div>/perimoveis/product/view/13</div></td></tr><tr><td style="font-weight:bold;vertical-align:top;">QUERY_STRING</td><td style="vertical-align:top;">:</td><td><div></div></td></tr><tr><td style="font-weight:bold;vertical-align:top;">REMOTE_ADDR</td><td style="vertical-align:top;">:</td><td><div>127.0.0.1</div></td></tr><tr><td style="font-weight:bold;vertical-align:top;">REMOTE_PORT</td><td style="vertical-align:top;">:</td><td><div>50145</div></td></tr><tr><td style="font-weight:bold;vertical-align:top;">REQUEST_METHOD</td><td style="vertical-align:top;">:</td><td><div>GET</div></td></tr><tr><td style="font-weight:bold;vertical-align:top;">SCRIPT_NAME</td><td style="vertical-align:top;">:</td><td><div></div></td></tr><tr><td style="font-weight:bold;vertical-align:top;">SERVER_NAME</td><td style="vertical-align:top;">:</td><td><div>Fabios-Mac-mini.local</div></td></tr><tr><td style="font-weight:bold;vertical-align:top;">SERVER_PORT</td><td style="vertical-align:top;">:</td><td><div>8080</div></td></tr><tr><td style="font-weight:bold;vertical-align:top;">SERVER_PROTOCOL</td><td style="vertical-align:top;">:</td><td><div>HTTP/1.1</div></td></tr><tr><td style="font-weight:bold;vertical-align:top;">SERVER_SOFTWARE</td><td style="vertical-align:top;">:</td><td><div>Rocket 1.2.6</div></td></tr><tr><td style="font-weight:bold;vertical-align:top;">app_folders</td><td style="vertical-align:top;">:</td><td><div>set([&#x27;/Users/fabiofilho/Documents/Deployment/Web2Py/web2py/applications/perimoveis/&#x27;, &#x27;/Users/fabiofilho/Documents/Deployment/Web2Py/web2py/applications/admin/&#x27;])</div></td></tr><tr><td style="font-weight:bold;vertical-align:top;">applications_parent</td><td style="vertical-align:top;">:</td><td><div>/Users/fabiofilho/Documents/Deployment/Web2Py/web2py</div></td></tr><tr><td style="font-weight:bold;vertical-align:top;">cmd_args</td><td style="vertical-align:top;">:</td><td><div><table></table></div></td></tr><tr><td style="font-weight:bold;vertical-align:top;">cmd_options</td><td style="vertical-align:top;">:</td><td><div>&lt;Values at 0x102d7c1b8: {&#x27;verbose&#x27;: False, &#x27;ip&#x27;: &#x27;0.0.0.0&#x27;, &#x27;debuglevel&#x27;: 30, &#x27;with_scheduler&#x27;: False, &#x27;ips&#x27;: [&#x27;192.168.0.232&#x27;, &#x27;2804:14d:5cb8:8d9f:aa8e:24ff:fea3:b6f7&#x27;, &#x27;fe80::aa8e:24ff:fea3:b6f7%en1&#x27;], &#x27;shutdown_timeout&#x27;: 5, &#x27;taskbar&#x27;: False, &#x27;with_coverage&#x27;: False, &#x27;scheduler_groups&#x27;: None, &#x27;port&#x27;: 8080, &#x27;maxthreads&#x27;: None, &#x27;softcron&#x27;: False, &#x27;server_name&#x27;: &#x27;Fabios-Mac-mini.local&#x27;, &#x27;bpython&#x27;: False, &#x27;nogui&#x27;: False, &#x27;pid_filename&#x27;: &#x27;httpserver.pid&#x27;, &#x27;print_errors&#x27;: False, &#x27;extcron&#x27;: False, &#x27;runcron&#x27;: False, &#x27;run_system_tests&#x27;: False, &#x27;test&#x27;: None, &#x27;folder&#x27;: &#x27;/Users/fabiofilho/Documents/Deployment/Web2Py/web2py&#x27;, &#x27;config&#x27;: &#x27;&#x27;, &#x27;minthreads&#x27;: None, &#x27;shell&#x27;: None, &#x27;run&#x27;: &#x27;&#x27;, &#x27;log_filename&#x27;: &#x27;httpserver.log&#x27;, &#x27;profiler_dir&#x27;: None, &#x27;args&#x27;: [&#x27;&#x27;], &#x27;socket_timeout&#x27;: 5, &#x27;ssl_ca_certificate&#x27;: None, &#x27;scheduler&#x27;: None, &#x27;interfaces&#x27;: None, &#x27;ssl_private_key&#x27;: &#x27;&#x27;, &#x27;gae&#x27;: None, &#x27;password&#x27;: &#x27;a&#x27;, &#x27;request_queue_size&#x27;: 5, &#x27;ssl_certificate&#x27;: &#x27;&#x27;, &#x27;cronjob&#x27;: False, &#x27;numthreads&#x27;: None, &#x27;quiet&#x27;: False, &#x27;import_models&#x27;: False, &#x27;timeout&#x27;: 10, &#x27;plain&#x27;: False, &#x27;nobanner&#x27;: False}&gt;</div></td></tr><tr><td style="font-weight:bold;vertical-align:top;">db_sessions</td><td style="vertical-align:top;">:</td><td><div>set([])</div></td></tr><tr><td style="font-weight:bold;vertical-align:top;">debugging</td><td style="vertical-align:top;">:</td><td><div>False</div></td></tr><tr><td style="font-weight:bold;vertical-align:top;">gluon_parent</td><td style="vertical-align:top;">:</td><td><div>/Users/fabiofilho/Documents/Deployment/Web2Py/web2py</div></td></tr><tr><td style="font-weight:bold;vertical-align:top;">http_accept</td><td style="vertical-align:top;">:</td><td><div>text/html,application/xhtml+xml,application/xml;q=0.9,image/webp,*/*;q=0.8</div></td></tr><tr><td style="font-weight:bold;vertical-align:top;">http_accept_encoding</td><td style="vertical-align:top;">:</td><td><div>gzip, deflate, sdch</div></td></tr><tr><td style="font-weight:bold;vertical-align:top;">http_accept_language</td><td style="vertical-align:top;">:</td><td><div>pt,en-US;q=0.8,en;q=0.6</div></td></tr><tr><td style="font-weight:bold;vertical-align:top;">http_cache_control</td><td style="vertical-align:top;">:</td><td><div>max-age=0</div></td></tr><tr><td style="font-weight:bold;vertical-align:top;">http_connection</td><td style="vertical-align:top;">:</td><td><div>keep-alive</div></td></tr><tr><td style="font-weight:bold;vertical-align:top;">http_cookie</td><td style="vertical-align:top;">:</td><td><div>session_id_admin=127.0.0.1-9e6495f4-c7b2-4d19-b88b-0debb42cf68c; session_id_perimoveis=127.0.0.1-71d73ded-bfb8-439e-82a7-4e098d041c9c</div></td></tr><tr><td style="font-weight:bold;vertical-align:top;">http_host</td><td style="vertical-align:top;">:</td><td><div>localhost:8080</div></td></tr><tr><td style="font-weight:bold;vertical-align:top;">http_upgrade_insecure_requests</td><td style="vertical-align:top;">:</td><td><div>1</div></td></tr><tr><td style="font-weight:bold;vertical-align:top;">http_user_agent</td><td style="vertical-align:top;">:</td><td><div>Mozilla/5.0 (Macintosh; Intel Mac OS X 10_11_3) AppleWebKit/537.36 (KHTML, like Gecko) Chrome/49.0.2623.87 Safari/537.36</div></td></tr><tr><td style="font-weight:bold;vertical-align:top;">is_jython</td><td style="vertical-align:top;">:</td><td><div>False</div></td></tr><tr><td style="font-weight:bold;vertical-align:top;">is_pypy</td><td style="vertical-align:top;">:</td><td><div>False</div></td></tr><tr><td style="font-weight:bold;vertical-align:top;">is_source</td><td style="vertical-align:top;">:</td><td><div>True</div></td></tr><tr><td style="font-weight:bold;vertical-align:top;">local_hosts</td><td style="vertical-align:top;">:</td><td><div><table><tr><td><div>Fabios-Mac-mini.local</div></td></tr><tr><td><div>fabios-mac-mini.local</div></td></tr><tr><td><div>::ffff:127.0.0.1</div></td></tr><tr><td><div>::1</div></td></tr><tr><td><div>fe80::aa8e:24ff:fea3:b6f7%en1</div></td></tr><tr><td><div>192.168.0.232</div></td></tr><tr><td><div>2804:14d:5cb8:8d9f:aa8e:24ff:fea3:b6f7</div></td></tr><tr><td><div>127.0.0.1</div></td></tr></table></div></td></tr><tr><td style="font-weight:bold;vertical-align:top;">path_info</td><td style="vertical-align:top;">:</td><td><div>/perimoveis/product/view/13</div></td></tr><tr><td style="font-weight:bold;vertical-align:top;">query_string</td><td style="vertical-align:top;">:</td><td><div></div></td></tr><tr><td style="font-weight:bold;vertical-align:top;">remote_addr</td><td style="vertical-align:top;">:</td><td><div>127.0.0.1</div></td></tr><tr><td style="font-weight:bold;vertical-align:top;">remote_port</td><td style="vertical-align:top;">:</td><td><div>50145</div></td></tr><tr><td style="font-weight:bold;vertical-align:top;">request_method</td><td style="vertical-align:top;">:</td><td><div>GET</div></td></tr><tr><td style="font-weight:bold;vertical-align:top;">request_uri</td><td style="vertical-align:top;">:</td><td><div>/perimoveis/product/view/13</div></td></tr><tr><td style="font-weight:bold;vertical-align:top;">script_name</td><td style="vertical-align:top;">:</td><td><div></div></td></tr><tr><td style="font-weight:bold;vertical-align:top;">server_name</td><td style="vertical-align:top;">:</td><td><div>Fabios-Mac-mini.local</div></td></tr><tr><td style="font-weight:bold;vertical-align:top;">server_port</td><td style="vertical-align:top;">:</td><td><div>8080</div></td></tr><tr><td style="font-weight:bold;vertical-align:top;">server_protocol</td><td style="vertical-align:top;">:</td><td><div>HTTP/1.1</div></td></tr><tr><td style="font-weight:bold;vertical-align:top;">server_software</td><td style="vertical-align:top;">:</td><td><div>Rocket 1.2.6</div></td></tr><tr><td style="font-weight:bold;vertical-align:top;">web2py_path</td><td style="vertical-align:top;">:</td><td><div>/Users/fabiofilho/Documents/Deployment/Web2Py/web2py</div></td></tr><tr><td style="font-weight:bold;vertical-align:top;">web2py_version</td><td style="vertical-align:top;">:</td><td><div>2.13.4-stable+timestamp.2015.12.26.04.59.39</div></td></tr><tr><td style="font-weight:bold;vertical-align:top;">wsgi.errors</td><td style="vertical-align:top;">:</td><td><div>&lt;open file &#x27;&lt;stderr&gt;&#x27;, mode &#x27;w&#x27; at 0x1017dd1e0&gt;</div></td></tr><tr><td style="font-weight:bold;vertical-align:top;">wsgi.file_wrapper</td><td style="vertical-align:top;">:</td><td><div>&lt;class wsgiref.util.FileWrapper at 0x102d20460&gt;</div></td></tr><tr><td style="font-weight:bold;vertical-align:top;">wsgi.input</td><td style="vertical-align:top;">:</td><td><div>&lt;socket._fileobject object at 0x1042c5550&gt;</div></td></tr><tr><td style="font-weight:bold;vertical-align:top;">wsgi.multiprocess</td><td style="vertical-align:top;">:</td><td><div>False</div></td></tr><tr><td style="font-weight:bold;vertical-align:top;">wsgi.multithread</td><td style="vertical-align:top;">:</td><td><div>True</div></td></tr><tr><td style="font-weight:bold;vertical-align:top;">wsgi.run_once</td><td style="vertical-align:top;">:</td><td><div>False</div></td></tr><tr><td style="font-weight:bold;vertical-align:top;">wsgi.url_scheme</td><td style="vertical-align:top;">:</td><td><div>http</div></td></tr><tr><td style="font-weight:bold;vertical-align:top;">wsgi.version</td><td style="vertical-align:top;">:</td><td><div><table><tr><td><div>1</div></td></tr><tr><td><div>0</div></td></tr></table></div></td></tr><tr><td style="font-weight:bold;vertical-align:top;">wsgi_errors</td><td style="vertical-align:top;">:</td><td><div>&lt;open file &#x27;&lt;stderr&gt;&#x27;, mode &#x27;w&#x27; at 0x1017dd1e0&gt;</div></td></tr><tr><td style="font-weight:bold;vertical-align:top;">wsgi_file_wrapper</td><td style="vertical-align:top;">:</td><td><div>&lt;class wsgiref.util.FileWrapper at 0x102d20460&gt;</div></td></tr><tr><td style="font-weight:bold;vertical-align:top;">wsgi_input</td><td style="vertical-align:top;">:</td><td><div>&lt;socket._fileobject object at 0x1042c5550&gt;</div></td></tr><tr><td style="font-weight:bold;vertical-align:top;">wsgi_multiprocess</td><td style="vertical-align:top;">:</td><td><div>False</div></td></tr><tr><td style="font-weight:bold;vertical-align:top;">wsgi_multithread</td><td style="vertical-align:top;">:</td><td><div>True</div></td></tr><tr><td style="font-weight:bold;vertical-align:top;">wsgi_run_once</td><td style="vertical-align:top;">:</td><td><div>False</div></td></tr><tr><td style="font-weight:bold;vertical-align:top;">wsgi_url_scheme</td><td style="vertical-align:top;">:</td><td><div>http</div></td></tr><tr><td style="font-weight:bold;vertical-align:top;">wsgi_version</td><td style="vertical-align:top;">:</td><td><div><table><tr><td><div>1</div></td></tr><tr><td><div>0</div></td></tr></table></div></td></tr></table></div></td></tr><tr><td style="font-weight:bold;vertical-align:top;">extension</td><td style="vertical-align:top;">:</td><td><div>html</div></td></tr><tr><td style="font-weight:bold;vertical-align:top;">folder</td><td style="vertical-align:top;">:</td><td><div>/Users/fabiofilho/Documents/Deployment/Web2Py/web2py/applications/perimoveis/</div></td></tr><tr><td style="font-weight:bold;vertical-align:top;">function</td><td style="vertical-align:top;">:</td><td><div>view</div></td></tr><tr><td style="font-weight:bold;vertical-align:top;">global_settings</td><td style="vertical-align:top;">:</td><td><div><table><tr><td style="font-weight:bold;vertical-align:top;">app_folders</td><td style="vertical-align:top;">:</td><td><div>set([&#x27;/Users/fabiofilho/Documents/Deployment/Web2Py/web2py/applications/perimoveis/&#x27;, &#x27;/Users/fabiofilho/Documents/Deployment/Web2Py/web2py/applications/admin/&#x27;])</div></td></tr><tr><td style="font-weight:bold;vertical-align:top;">applications_parent</td><td style="vertical-align:top;">:</td><td><div>/Users/fabiofilho/Documents/Deployment/Web2Py/web2py</div></td></tr><tr><td style="font-weight:bold;vertical-align:top;">cmd_args</td><td style="vertical-align:top;">:</td><td><div><table></table></div></td></tr><tr><td style="font-weight:bold;vertical-align:top;">cmd_options</td><td style="vertical-align:top;">:</td><td><div>&lt;Values at 0x102d7c1b8: {&#x27;verbose&#x27;: False, &#x27;ip&#x27;: &#x27;0.0.0.0&#x27;, &#x27;debuglevel&#x27;: 30, &#x27;with_scheduler&#x27;: False, &#x27;ips&#x27;: [&#x27;192.168.0.232&#x27;, &#x27;2804:14d:5cb8:8d9f:aa8e:24ff:fea3:b6f7&#x27;, &#x27;fe80::aa8e:24ff:fea3:b6f7%en1&#x27;], &#x27;shutdown_timeout&#x27;: 5, &#x27;taskbar&#x27;: False, &#x27;with_coverage&#x27;: False, &#x27;scheduler_groups&#x27;: None, &#x27;port&#x27;: 8080, &#x27;maxthreads&#x27;: None, &#x27;softcron&#x27;: False, &#x27;server_name&#x27;: &#x27;Fabios-Mac-mini.local&#x27;, &#x27;bpython&#x27;: False, &#x27;nogui&#x27;: False, &#x27;pid_filename&#x27;: &#x27;httpserver.pid&#x27;, &#x27;print_errors&#x27;: False, &#x27;extcron&#x27;: False, &#x27;runcron&#x27;: False, &#x27;run_system_tests&#x27;: False, &#x27;test&#x27;: None, &#x27;folder&#x27;: &#x27;/Users/fabiofilho/Documents/Deployment/Web2Py/web2py&#x27;, &#x27;config&#x27;: &#x27;&#x27;, &#x27;minthreads&#x27;: None, &#x27;shell&#x27;: None, &#x27;run&#x27;: &#x27;&#x27;, &#x27;log_filename&#x27;: &#x27;httpserver.log&#x27;, &#x27;profiler_dir&#x27;: None, &#x27;args&#x27;: [&#x27;&#x27;], &#x27;socket_timeout&#x27;: 5, &#x27;ssl_ca_certificate&#x27;: None, &#x27;scheduler&#x27;: None, &#x27;interfaces&#x27;: None, &#x27;ssl_private_key&#x27;: &#x27;&#x27;, &#x27;gae&#x27;: None, &#x27;password&#x27;: &#x27;a&#x27;, &#x27;request_queue_size&#x27;: 5, &#x27;ssl_certificate&#x27;: &#x27;&#x27;, &#x27;cronjob&#x27;: False, &#x27;numthreads&#x27;: None, &#x27;quiet&#x27;: False, &#x27;import_models&#x27;: False, &#x27;timeout&#x27;: 10, &#x27;plain&#x27;: False, &#x27;nobanner&#x27;: False}&gt;</div></td></tr><tr><td style="font-weight:bold;vertical-align:top;">db_sessions</td><td style="vertical-align:top;">:</td><td><div>set([])</div></td></tr><tr><td style="font-weight:bold;vertical-align:top;">debugging</td><td style="vertical-align:top;">:</td><td><div>False</div></td></tr><tr><td style="font-weight:bold;vertical-align:top;">gluon_parent</td><td style="vertical-align:top;">:</td><td><div>/Users/fabiofilho/Documents/Deployment/Web2Py/web2py</div></td></tr><tr><td style="font-weight:bold;vertical-align:top;">is_jython</td><td style="vertical-align:top;">:</td><td><div>False</div></td></tr><tr><td style="font-weight:bold;vertical-align:top;">is_pypy</td><td style="vertical-align:top;">:</td><td><div>False</div></td></tr><tr><td style="font-weight:bold;vertical-align:top;">is_source</td><td style="vertical-align:top;">:</td><td><div>True</div></td></tr><tr><td style="font-weight:bold;vertical-align:top;">local_hosts</td><td style="vertical-align:top;">:</td><td><div><table><tr><td><div>Fabios-Mac-mini.local</div></td></tr><tr><td><div>fabios-mac-mini.local</div></td></tr><tr><td><div>::ffff:127.0.0.1</div></td></tr><tr><td><div>::1</div></td></tr><tr><td><div>fe80::aa8e:24ff:fea3:b6f7%en1</div></td></tr><tr><td><div>192.168.0.232</div></td></tr><tr><td><div>2804:14d:5cb8:8d9f:aa8e:24ff:fea3:b6f7</div></td></tr><tr><td><div>127.0.0.1</div></td></tr></table></div></td></tr><tr><td style="font-weight:bold;vertical-align:top;">web2py_version</td><td style="vertical-align:top;">:</td><td><div>2.13.4-stable+timestamp.2015.12.26.04.59.39</div></td></tr></table></div></td></tr><tr><td style="font-weight:bold;vertical-align:top;">is_https</td><td style="vertical-align:top;">:</td><td><div>False</div></td></tr><tr><td style="font-weight:bold;vertical-align:top;">is_local</td><td style="vertical-align:top;">:</td><td><div>True</div></td></tr><tr><td style="font-weight:bold;vertical-align:top;">is_restful</td><td style="vertical-align:top;">:</td><td><div>False</div></td></tr><tr><td style="font-weight:bold;vertical-align:top;">is_scheduler</td><td style="vertical-align:top;">:</td><td><div>False</div></td></tr><tr><td style="font-weight:bold;vertical-align:top;">is_shell</td><td style="vertical-align:top;">:</td><td><div>False</div></td></tr><tr><td style="font-weight:bold;vertical-align:top;">now</td><td style="vertical-align:top;">:</td><td><div>datetime.datetime(2016, 3, 17, 23, 4, 37, 601802)</div></td></tr><tr><td style="font-weight:bold;vertical-align:top;">raw_args</td><td style="vertical-align:top;">:</td><td><div>13</div></td></tr><tr><td style="font-weight:bold;vertical-align:top;">raw_extension</td><td style="vertical-align:top;">:</td><td><div>None</div></td></tr><tr><td style="font-weight:bold;vertical-align:top;">url</td><td style="vertical-align:top;">:</td><td><div>/perimoveis/product/view/13</div></td></tr><tr><td style="font-weight:bold;vertical-align:top;">utcnow</td><td style="vertical-align:top;">:</td><td><div>datetime.datetime(2016, 3, 18, 2, 4, 37, 601812)</div></td></tr><tr><td style="font-weight:bold;vertical-align:top;">wsgi</td><td style="vertical-align:top;">:</td><td><div>&lt;gluon.main.LazyWSGI object at 0x1047ff810&gt;</div></td></tr></table></div>'
tRp70
sS'frames'
p71
(lp72
(dp73
S'file'
p74
S'/Users/fabiofilho/Documents/Deployment/Web2Py/web2py/gluon/restricted.py'
p75
sS'dump'
p76
(dp77
S'code'
p78
S"'# -*- coding: utf-8 -*-\\n\\n\\n\\nclass MessageBox:\\n\\n\\td...e ==0) ):\\n\\t\\t\\treturn False\\n\\t\\telse:\\n\\t\\t\\treturn True\\n'"
p79
sS'layer'
p80
S"'/Users/fabiofilho/Documents/Deployment/Web2Py/web2py/applications/perimoveis/models/lib.py'"
p81
sS'global compile2'
p82
S'<function compile2>'
p83
sS'ccode'
p84
S'undefined'
p85
ssS'lnum'
p86
I226
sS'lines'
p87
(dp88
I224
S'            ccode = code'
p89
sI225
S'        else:'
p90
sI226
S'            ccode = compile2(code, layer)'
p91
sI227
S'        exec ccode in environment'
p92
sI228
S'    except HTTP:'
p93
sI229
S'        raise'
p94
sI230
S'    except RestrictedError:'
p95
sI221
S"    environment['__name__'] = '__restricted__'"
p96
sI222
S'    try:'
p97
sI223
S'        if isinstance(code, types.CodeType):'
p98
ssS'call'
p99
S"(code='# -*- coding: utf-8 -*-\\n\\n\\n\\nclass MessageBox:\\n\\n\\td...e ==0) ):\\n\\t\\t\\treturn False\\n\\t\\telse:\\n\\t\\t\\treturn True\\n', environment={'A': <class 'gluon.html.A'>, 'ANY_OF': <class 'gluon.validators.ANY_OF'>, 'ASSIGNJS': <function ASSIGNJS>, 'AppConfig': <function AppConfig>, 'Auth': <class 'gluon.tools.Auth'>, 'B': <class 'gluon.html.B'>, 'BEAUTIFY': <class 'gluon.html.BEAUTIFY'>, 'BODY': <class 'gluon.html.BODY'>, 'BR': <class 'gluon.html.BR'>, 'BUTTON': <class 'gluon.html.BUTTON'>, ...}, layer='/Users/fabiofilho/Documents/Deployment/Web2Py/web2py/applications/perimoveis/models/lib.py')"
p100
sS'func'
p101
S'restricted'
p102
sa(dp103
g74
S'/Users/fabiofilho/Documents/Deployment/Web2Py/web2py/gluon/restricted.py'
p104
sg76
(dp105
S'builtincompile'
p106
S'<built-in function compile>'
p107
sS'code'
p108
S"'# -*- coding: utf-8 -*-\\n\\n\\n\\nclass MessageBox:\\n\\n\\td...e ==0) ):\\n\\t\\t\\treturn False\\n\\t\\telse:\\n\\t\\t\\treturn True\\n'"
p109
sS'code.rstrip'
p110
S'<built-in method rstrip of str object>'
p111
sS').replace'
p112
g85
sS'layer'
p113
S"'/Users/fabiofilho/Documents/Deployment/Web2Py/web2py/applications/perimoveis/models/lib.py'"
p114
ssg86
I209
sg87
(dp115
I204
S'def compile2(code, layer):'
p116
sI205
S'    """'
p117
sI206
S"    The ``+'\\\\n'`` is necessary else compile fails when code ends in a comment."
p118
sI207
S'    """'
p119
sI208
S''
sI209
S"    return compile(code.rstrip().replace('\\r\\n', '\\n') + '\\n', layer, 'exec')"
p120
sI210
S''
sI211
S''
sI212
S"def restricted(code, environment=None, layer='Unknown'):"
p121
sI213
S'    """'
p122
ssg99
S"(code='# -*- coding: utf-8 -*-\\n\\n\\n\\nclass MessageBox:\\n\\n\\td...e ==0) ):\\n\\t\\t\\treturn False\\n\\t\\telse:\\n\\t\\t\\treturn True\\n', layer='/Users/fabiofilho/Documents/Deployment/Web2Py/web2py/applications/perimoveis/models/lib.py')"
p123
sg101
S'compile2'
p124
sasS'pyver'
p125
S'Python 2.7.11: /usr/local/opt/python/bin/python2.7 (prefix: /usr/local/Cellar/python/2.7.11/Frameworks/Python.framework/Versions/2.7)'
p126
sS'session'
p127
g69
(S's\xa7\n\x00\x00<div><table><tr><td style="font-weight:bold;vertical-align:top;">auth</td><td style="vertical-align:top;">:</td><td><div><table><tr><td style="font-weight:bold;vertical-align:top;">expiration</td><td style="vertical-align:top;">:</td><td><div>3600</div></td></tr><tr><td style="font-weight:bold;vertical-align:top;">hmac_key</td><td style="vertical-align:top;">:</td><td><div>9f65bd8e-cba0-4b39-b836-661d63f60fca</div></td></tr><tr><td style="font-weight:bold;vertical-align:top;">last_visit</td><td style="vertical-align:top;">:</td><td><div>datetime.datetime(2016, 3, 17, 23, 4, 37, 601802)</div></td></tr><tr><td style="font-weight:bold;vertical-align:top;">remember_me</td><td style="vertical-align:top;">:</td><td><div>False</div></td></tr><tr><td style="font-weight:bold;vertical-align:top;">user</td><td style="vertical-align:top;">:</td><td><div><table><tr><td style="font-weight:bold;vertical-align:top;">email</td><td style="vertical-align:top;">:</td><td><div>atendimento@ad-media.tv</div></td></tr><tr><td style="font-weight:bold;vertical-align:top;">first_name</td><td style="vertical-align:top;">:</td><td><div>F\xc3\xa1bio</div></td></tr><tr><td style="font-weight:bold;vertical-align:top;">id</td><td style="vertical-align:top;">:</td><td><div>1L</div></td></tr><tr><td style="font-weight:bold;vertical-align:top;">last_name</td><td style="vertical-align:top;">:</td><td><div>Filho</div></td></tr><tr><td style="font-weight:bold;vertical-align:top;">mIsAdmin</td><td style="vertical-align:top;">:</td><td><div>False</div></td></tr><tr><td style="font-weight:bold;vertical-align:top;">mIsMaster</td><td style="vertical-align:top;">:</td><td><div>True</div></td></tr><tr><td style="font-weight:bold;vertical-align:top;">registration_id</td><td style="vertical-align:top;">:</td><td><div></div></td></tr><tr><td style="font-weight:bold;vertical-align:top;">registration_key</td><td style="vertical-align:top;">:</td><td><div></div></td></tr><tr><td style="font-weight:bold;vertical-align:top;">reset_password_key</td><td style="vertical-align:top;">:</td><td><div></div></td></tr></table></div></td></tr><tr><td style="font-weight:bold;vertical-align:top;">user_groups</td><td style="vertical-align:top;">:</td><td><div><table></table></div></td></tr></table></div></td></tr><tr><td style="font-weight:bold;vertical-align:top;">flash</td><td style="vertical-align:top;">:</td><td><div>None</div></td></tr><tr><td style="font-weight:bold;vertical-align:top;">last_orderby</td><td style="vertical-align:top;">:</td><td><div>None</div></td></tr><tr><td style="font-weight:bold;vertical-align:top;">last_query</td><td style="vertical-align:top;">:</td><td><div>db.tbProductsImageUploads.id&gt;0</div></td></tr></table></div>'
tRp128
sS'etype'
p129
S"<type 'exceptions.IndentationError'>"
p130
sS'date'
p131
S'Thu Mar 17 23:04:37 2016'
p132
sS'response'
p133
g69
(S's?\x18\x00\x00<div><table><tr><td style="font-weight:bold;vertical-align:top;">body</td><td style="vertical-align:top;">:</td><td><div>&lt;cStringIO.StringO object at 0x101d73e30&gt;</div></td></tr><tr><td style="font-weight:bold;vertical-align:top;">cookies</td><td style="vertical-align:top;">:</td><td><div><table><tr><td style="font-weight:bold;vertical-align:top;">session_id_perimoveis</td><td style="vertical-align:top;">:</td><td><div>127.0.0.1-71d73ded-bfb8-439e-82a7-4e098d041c9c<table><tr><td style="font-weight:bold;vertical-align:top;">comment</td><td style="vertical-align:top;">:</td><td><div></div></td></tr><tr><td style="font-weight:bold;vertical-align:top;">domain</td><td style="vertical-align:top;">:</td><td><div></div></td></tr><tr><td style="font-weight:bold;vertical-align:top;">expires</td><td style="vertical-align:top;">:</td><td><div></div></td></tr><tr><td style="font-weight:bold;vertical-align:top;">httponly</td><td style="vertical-align:top;">:</td><td><div></div></td></tr><tr><td style="font-weight:bold;vertical-align:top;">max-age</td><td style="vertical-align:top;">:</td><td><div></div></td></tr><tr><td style="font-weight:bold;vertical-align:top;">path</td><td style="vertical-align:top;">:</td><td><div>/</div></td></tr><tr><td style="font-weight:bold;vertical-align:top;">secure</td><td style="vertical-align:top;">:</td><td><div></div></td></tr><tr><td style="font-weight:bold;vertical-align:top;">version</td><td style="vertical-align:top;">:</td><td><div></div></td></tr></table></div></td></tr></table></div></td></tr><tr><td style="font-weight:bold;vertical-align:top;">delimiters</td><td style="vertical-align:top;">:</td><td><div><table><tr><td><div>{{</div></td></tr><tr><td><div>}}</div></td></tr></table></div></td></tr><tr><td style="font-weight:bold;vertical-align:top;">files</td><td style="vertical-align:top;">:</td><td><div><table></table></div></td></tr><tr><td style="font-weight:bold;vertical-align:top;">flash</td><td style="vertical-align:top;">:</td><td><div></div></td></tr><tr><td style="font-weight:bold;vertical-align:top;">form_label_separator</td><td style="vertical-align:top;">:</td><td><div></div></td></tr><tr><td style="font-weight:bold;vertical-align:top;">formstyle</td><td style="vertical-align:top;">:</td><td><div>bootstrap3_inline</div></td></tr><tr><td style="font-weight:bold;vertical-align:top;">generic_patterns</td><td style="vertical-align:top;">:</td><td><div><table><tr><td><div>*</div></td></tr></table></div></td></tr><tr><td style="font-weight:bold;vertical-align:top;">headers</td><td style="vertical-align:top;">:</td><td><div><table><tr><td style="font-weight:bold;vertical-align:top;">X-Powered-By</td><td style="vertical-align:top;">:</td><td><div>web2py</div></td></tr></table></div></td></tr><tr><td style="font-weight:bold;vertical-align:top;">menu</td><td style="vertical-align:top;">:</td><td><div><table></table></div></td></tr><tr><td style="font-weight:bold;vertical-align:top;">meta</td><td style="vertical-align:top;">:</td><td><div><table></table></div></td></tr><tr><td style="font-weight:bold;vertical-align:top;">models_to_run</td><td style="vertical-align:top;">:</td><td><div><table><tr><td><div>^\\w+\\.py$</div></td></tr><tr><td><div>^product/\\w+\\.py$</div></td></tr><tr><td><div>^product/view/\\w+\\.py$</div></td></tr></table></div></td></tr><tr><td style="font-weight:bold;vertical-align:top;">postprocessing</td><td style="vertical-align:top;">:</td><td><div><table></table></div></td></tr><tr><td style="font-weight:bold;vertical-align:top;">session_client</td><td style="vertical-align:top;">:</td><td><div>127.0.0.1</div></td></tr><tr><td style="font-weight:bold;vertical-align:top;">session_cookie_compression_level</td><td style="vertical-align:top;">:</td><td><div>None</div></td></tr><tr><td style="font-weight:bold;vertical-align:top;">session_cookie_expires</td><td style="vertical-align:top;">:</td><td><div>None</div></td></tr><tr><td style="font-weight:bold;vertical-align:top;">session_cookie_key</td><td style="vertical-align:top;">:</td><td><div>None</div></td></tr><tr><td style="font-weight:bold;vertical-align:top;">session_data_name</td><td style="vertical-align:top;">:</td><td><div>session_data_perimoveis</div></td></tr><tr><td style="font-weight:bold;vertical-align:top;">session_file</td><td style="vertical-align:top;">:</td><td><div>&lt;open file &#x27;/Users/fabiofilho/Documents/Deployment/Web2Py/web2py/applications/perimoveis/sessions/07a/0f2/127.0.0.1-71d73ded-bfb8-439e-82a7-4e098d041c9c&#x27;, mode &#x27;rb+&#x27; at 0x103a45a50&gt;</div></td></tr><tr><td style="font-weight:bold;vertical-align:top;">session_filename</td><td style="vertical-align:top;">:</td><td><div>/Users/fabiofilho/Documents/Deployment/Web2Py/web2py/applications/perimoveis/sessions/127.0.0.1-71d73ded-bfb8-439e-82a7-4e098d041c9c</div></td></tr><tr><td style="font-weight:bold;vertical-align:top;">session_hash</td><td style="vertical-align:top;">:</td><td><div>94ca09cff3605eddc15abf0ba237e4d8</div></td></tr><tr><td style="font-weight:bold;vertical-align:top;">session_id</td><td style="vertical-align:top;">:</td><td><div>127.0.0.1-71d73ded-bfb8-439e-82a7-4e098d041c9c</div></td></tr><tr><td style="font-weight:bold;vertical-align:top;">session_id_name</td><td style="vertical-align:top;">:</td><td><div>session_id_perimoveis</div></td></tr><tr><td style="font-weight:bold;vertical-align:top;">session_locked</td><td style="vertical-align:top;">:</td><td><div>True</div></td></tr><tr><td style="font-weight:bold;vertical-align:top;">session_masterapp</td><td style="vertical-align:top;">:</td><td><div>perimoveis</div></td></tr><tr><td style="font-weight:bold;vertical-align:top;">session_new</td><td style="vertical-align:top;">:</td><td><div>False</div></td></tr><tr><td style="font-weight:bold;vertical-align:top;">session_storage_type</td><td style="vertical-align:top;">:</td><td><div>file</div></td></tr><tr><td style="font-weight:bold;vertical-align:top;">status</td><td style="vertical-align:top;">:</td><td><div>200</div></td></tr><tr><td style="font-weight:bold;vertical-align:top;">view</td><td style="vertical-align:top;">:</td><td><div>product/view.html</div></td></tr></table></div>'
tRp134
sS'locals'
p135
(dp136
g4
S"'/Users/fabiofilho/Documents/Deployment/Web2Py/web2py/applications/perimoveis/models/lib.py'"
p137
sg6
S"'# -*- coding: utf-8 -*-\\n\\n\\n\\nclass MessageBox:\\n\\n\\td...e ==0) ):\\n\\t\\t\\treturn False\\n\\t\\telse:\\n\\t\\t\\treturn True\\n'"
p138
sssS'traceback'
p139
S'Traceback (most recent call last):\n  File "/Users/fabiofilho/Documents/Deployment/Web2Py/web2py/gluon/restricted.py", line 226, in restricted\n    ccode = compile2(code, layer)\n  File "/Users/fabiofilho/Documents/Deployment/Web2Py/web2py/gluon/restricted.py", line 209, in compile2\n    return compile(code.rstrip().replace(\'\\r\\n\', \'\\n\') + \'\\n\', layer, \'exec\')\n  File "/Users/fabiofilho/Documents/Deployment/Web2Py/web2py/applications/perimoveis/models/lib.py", line 119\n    return mPrice + "0"\n                      ^\nIndentationError: unindent does not match any outer indentation level\n'
p140
s.