(dp1
S'output'
p2
S"<type 'exceptions.AttributeError'> "
p3
sS'layer'
p4
S'/Users/fabiofilho/Documents/Deployment/Web2Py/web2py/applications/perimoveis/views/product/index.html'
p5
sS'code'
p6
S'response.write(\'<!DOCTYPE html>\\n<html lang="pt-br">\\n\\n<head>\\n\\n    <meta charset="utf-8">\\n    <meta http-equiv="X-UA-Compatible" content="IE=edge">\\n    <meta name="viewport" content="width=device-width, initial-scale=1">\\n    <meta name="description" content="">\\n    <meta name="author" content="">\\n\\n    <title>\', escape=False)\nresponse.write(response.title or request.application)\nresponse.write(\'</title>\\n    <!-- http://dev.w3.org/html5/markup/meta.name.html -->\\n    <meta name="application-name" content="\', escape=False)\nresponse.write(request.application)\nresponse.write(\'">\\n    <!-- Speaking of Google, don\\\'t forget to set your site up:\\n         http://google.com/webmasters -->\\n    <meta name="google-site-verification" content="">\\n\\n    <!-- Bootstrap Core CSS -->\\n    <link href="\', escape=False)\nresponse.write(URL(\'static\', \'css/bootstrap.min.css\'))\nresponse.write(\'" rel="stylesheet">\\n\\n    <!-- Custom CSS -->\\n    <link href="\', escape=False)\nresponse.write(URL(\'static\', \'css/mycss.css\'))\nresponse.write(\'" rel="stylesheet">\\n\\n    <!-- Fonts -->\\n    <link href="http://fonts.googleapis.com/css?family=Open+Sans:300italic,400italic,600italic,700italic,800italic,400,300,600,700,800" rel="stylesheet" type="text/css">\\n    <link href="http://fonts.googleapis.com/css?family=Josefin+Slab:100,300,400,600,700,100italic,300italic,400italic,600italic,700italic" rel="stylesheet" type="text/css">\\n\\n    <!-- HTML5 Shim and Respond.js IE8 support of HTML5 elements and media queries -->\\n    <!-- WARNING: Respond.js doesn\\\'t work if you view the page via file:// -->\\n    <!--[if lt IE 9]>\\n        <script src="https://oss.maxcdn.com/libs/html5shiv/3.7.0/html5shiv.js"></script>\\n        <script src="https://oss.maxcdn.com/libs/respond.js/1.4.2/respond.min.js"></script>\\n    <![endif]-->\\n    \', escape=False)\nresponse.write(\'<script type="text/javascript"><!--\\n    // These variables are used by the web2py_ajax_init function in web2py_ajax.js (which is loaded below).\\n    var w2p_ajax_confirm_message = "\', escape=False)\nresponse.write(T(\'Are you sure you want to delete this object?\'))\nresponse.write(\'";\\n    var w2p_ajax_disable_with_message = "\', escape=False)\nresponse.write(T(\'Working...\'))\nresponse.write(\'";\\n    var w2p_ajax_date_format = "\', escape=False)\nresponse.write(T(\'%Y-%m-%d\'))\nresponse.write(\'";\\n    var w2p_ajax_datetime_format = "\', escape=False)\nresponse.write(T(\'%Y-%m-%d %H:%M:%S\'))\nresponse.write(\'";\\n    var ajax_error_500 = \\\'\', escape=False)\nresponse.write(T.M(\'An error occured, please [[reload %s]] the page\') % URL(args=request.args, vars=request.get_vars))\nresponse.write("\'\\n    //--></script>\\n", escape=False)\nresponse.files.insert(0,URL(\'static\',\'js/jquery.js\'))\nresponse.files.insert(1,URL(\'static\',\'css/calendar.css\'))\nresponse.files.insert(2,URL(\'static\',\'js/calendar.js\'))\nresponse.files.insert(3,URL(\'static\',\'js/web2py.js\'))\nresponse.include_meta()\nresponse.include_files()\nresponse.write(\'\\n\', escape=False)\nresponse.write(\' <!-- this includes jquery.js, calendar.js/.css and web2py.js -->\\n    \', escape=False)\nresponse.write(\'\\n    \', escape=False)\n# using sidebars need to know what sidebar you want to use\nmc0 = \'col-md-12\'\nmc1 = \'col-md-9\'\nmc2 = \'col-md-6\'\nleft_sidebar_enabled = globals().get(\'left_sidebar_enabled\', False)\nright_sidebar_enabled = globals().get(\'right_sidebar_enabled\', False)\nmiddle_column = {0: mc0, 1: mc1, 2: mc2}[\n(left_sidebar_enabled and 1 or 0)+(right_sidebar_enabled and 1 or 0)]\nresponse.write(\'\\n\\n</head>\\n\\n<body>\\n\\n    <div class="brand">\', escape=False)\nresponse.write(response.title_label or response.title or request.application)\nresponse.write(\'</div>\\n    <div class="address-bar">\', escape=False)\nresponse.write(response.subtitle or \'\')\nresponse.write(\'</div>\\n\\n    <!-- Navigation -->\\n    <nav class="navbar navbar-default" role="navigation">\\n        <div class="container">\\n            <!-- Brand and toggle get grouped for better mobile display -->\\n            <div class="navbar-header">\\n                <button type="button" class="navbar-toggle" data-toggle="collapse" data-target="#bs-example-navbar-collapse-1">\\n                    <span class="sr-only">\', escape=False)\nresponse.write(T(\'Toggle navigation\'))\nresponse.write(\'</span>\\n                    <span class="icon-bar"></span>\\n                    <span class="icon-bar"></span>\\n                    <span class="icon-bar"></span>\\n                </button>\\n                <!-- navbar-brand is hidden on larger screens, but visible when the menu is collapsed -->\\n                <a class="navbar-brand" href="\', escape=False)\nresponse.write(URL(\'app\', \'index\'))\nresponse.write(\'">\', escape=False)\nresponse.write(response.title_label)\nresponse.write(\'</a>\\n            </div>\\n            <!-- Collect the nav links, forms, and other content for toggling -->\\n            <div class="collapse navbar-collapse" id="bs-example-navbar-collapse-1">\\n                <ul class="nav navbar-nav">\\n                    \', escape=False)\nfor mIndex in range(len(response.menu)):\n    response.write(\'\\n                        \', escape=False)\n    mMenuItem = response.menu[mIndex]\n    response.write(\'\\n                        <li>\\n                            \', escape=False)\n    if mIndex < len(response.menu)-1:\n        response.write(\'\\n                            <a href="\', escape=False)\n        response.write(mMenuItem[2])\n        response.write(\'">\', escape=False)\n        response.write(mMenuItem[0])\n        response.write(\'</a>\\n                            \', escape=False)\n    else:\n        response.write(\'\\n\\n                                \', escape=False)\n        if not auth.is_logged_in():\n            response.write(\'\\n                                    <a href="\', escape=False)\n            response.write(mMenuItem[2])\n            response.write(\'">\\n                                      <span  class="glyphicon glyphicon-user" aria-hidden="true"></span>\\n                                      \', escape=False)\n            response.write(mMenuItem[0])\n            response.write(\'\\n                                    </a>\\n\\n                                \', escape=False)\n        else:\n            response.write(\'\\n                                      \', escape=False)\n            mAuth = db.auth_user(auth.user_id)\n            response.write(\'\\n                                      <ul class="nav nav-pills">\\n                                          <li role="presentation" class="dropdown">\\n                                            <a class="dropdown-toggle" data-toggle="dropdown" href="#" role="button" aria-haspopup="true" aria-expanded="false">\\n                                              <span  class="glyphicon glyphicon-menu-hamburger" aria-hidden="true"></span>\\n                                              \', escape=False)\n            response.write(mAuth.first_name)\n            response.write(\' \', escape=False)\n            response.write(mAuth.last_name)\n            response.write(\'\\n                                               <span class="caret"></span>\\n                                            </a>\\n                                            <ul class="dropdown-menu">\\n                                              <li>\\n                                                <a href="#">\\n                                                  <span class="glyphicon glyphicon-user" aria-hidden="true"></span>\\n                                                  \', escape=False)\n            response.write(T(\'Edit profile\'))\n            response.write(\'\\n                                                </a>\\n                                              </li>\\n                                              <li role="separator" class="divider"></li>\\n                                              \', escape=False)\n            if Utilities.is_admin():\n                response.write(\'\\n                                                  <li>\\n                                                    <a href="\', escape=False)\n                response.write(URL(\'manager\', \'index\'))\n                response.write(\'">\\n                                                      <span class="glyphicon glyphicon-cog" aria-hidden="true"></span>\\n                                                      <b>\', escape=False)\n                response.write(T(\'Management\'))\n                response.write(\'</b>\\n                                                    </a>\\n                                                  </li>\\n                                                  <li role="separator" class="divider"></li>\\n                                              \', escape=False)\n                pass\n            response.write(\'\\n                                              <li>\\n                                                <a href="#">\\n                                                  <span class="glyphicon glyphicon-shopping-cart" aria-hidden="true"></span>\\n                                                  \', escape=False)\n            response.write(T(\'Wish list\'))\n            response.write(\'\\n                                                </a>\\n                                              </li>\\n                                              <li>\\n                                                <a href="#">\\n                                                  <span class="glyphicon glyphicon-list" aria-hidden="true"></span>\\n                                                  \', escape=False)\n            response.write(T(\'History\'))\n            response.write(\'\\n                                                </a>\\n                                              </li>\\n                                              <li role="separator" class="divider"></li>\\n                                              <li>\\n                                                <a href="\', escape=False)\n            response.write(URL(\'default\', \'user\', args=\'logout\'))\n            response.write(\'">\\n                                                  <span class="glyphicon glyphicon-off" aria-hidden="true"></span>\\n                                                  \', escape=False)\n            response.write(T(\'Logout\'))\n            response.write(\'\\n                                               </a>\\n                                             </li>\\n                                            </ul>\\n                                          </li>\\n                                     </ul>\\n\\n                                \', escape=False)\n            pass\n        response.write(\'\\n                            \', escape=False)\n        pass\n    response.write(\'\\n                        </li>\\n                    \', escape=False)\n    pass\nresponse.write(\'\\n                </ul>\\n            </div>\\n            <!-- /.navbar-collapse -->\\n        </div>\\n        <!-- /.container -->\\n    </nav>\\n\\n\\n    <!-- Begin page content -->\\n    <div class="container-fluid main-container">\\n      \', escape=False)\nif left_sidebar_enabled:\n    response.write(\'\\n        <div class="col-md-3 left-sidebar">\\n            \', escape=False)\n    response.write(\'\\n            <h3>Left Sidebar</h3>\\n            <p></p>\\n            \', escape=False)\n    response.write(\'\\n        </div>\\n      \', escape=False)\n    pass\nresponse.write(\'\\n\\n      <div class="\', escape=False)\nresponse.write(middle_column)\nresponse.write(\'">\\n        \', escape=False)\nresponse.write(\'\\n        <div class="container">\\n           \', escape=False)\nresponse.write(\'\\n\\n<div class="row">\\n  <div class="box">\\n      <div class="col-lg-12">\\n          <hr>\\n          <h2 class="intro-text text-center">\\n              <strong>\', escape=False)\nresponse.write(T(\'Products\'))\nresponse.write(\'</strong>\\n          </h2>\\n          <hr>\\n      </div>\\n  </div>\\n\\n</div>\\n\\n\\n<div class="row">\\n        \', escape=False)\nmIndex = -1\nresponse.write(\'\\n        \', escape=False)\nfor mRow in mRows:\n    response.write(\'\\n          \', escape=False)\n    mIndex +=1\n    response.write(\'\\n          <div class="col-sm-6 col-md-4">\\n            <div class="thumbnail">\\n                <a href="\', escape=False)\n    response.write(URL(\'app\', \'download\', args=[mThumbnailList[mIndex]]))\n    response.write(\'" >\\n                     <img src=\\\'\', escape=False)\n    response.write(URL(\'app\', \'download\', args=[mThumbnailList[mIndex]]))\n    response.write(\'\\\'/>\\n                </a>\\n                <div class="caption">\\n                  <h3>\', escape=False)\n    response.write(mRow.mName)\n    response.write(\'</h3>\\n                  <p>\\n                    <a href="\', escape=False)\n    response.write(URL(\'app\', \'download\', args=[mThumbnailList[mIndex]]))\n    response.write(\'" class="btn btn-default" role="button">\\n                      \', escape=False)\n    response.write(T(\'View\'))\n    response.write(\'\\n                      <span class="glyphicon glyphicon-eye-open" aria-hidden="true"></span>\\n                    </a>\\n                    <button type="button" class="btn btn-danger" data-toggle="modal" data-target="#mModalDetails\', escape=False)\n    response.write(mRow.id)\n    response.write(\'">\\n                      \', escape=False)\n    response.write(T(\'Buy\'))\n    response.write(\'\\n                      <span class="glyphicon glyphicon glyphicon-trash" aria-hidden="true"></span>\\n                    </button>\\n                  </p>\\n                </div>\\n            </div>\\n          </div>\\n\\n          <!-- Modal -->\\n          <div class="modal fade" id="mModalDetails\', escape=False)\n    response.write(mRow.id)\n    response.write(\'" tabindex="-1" role="dialog" aria-labelledby="myModalLabel\', escape=False)\n    response.write(mRow.id)\n    response.write(\'">\\n            <div class="modal-dialog" role="document">\\n              <div class="modal-content">\\n                <div class="modal-header">\\n                  <button type="button" class="close" data-dismiss="modal" aria-label="Close"><span aria-hidden="true">&times;</span></button>\\n                  <h4 class="modal-title" id="myModalLabel\', escape=False)\n    response.write(mRow.id)\n    response.write(\'">\', escape=False)\n    response.write(T(\'Are you sure you want to remove this item\'))\n    response.write(\' <b>\', escape=False)\n    response.write(mRow.mLabel)\n    response.write(\'</b> ?</h4>\\n                </div>\\n                <div class="modal-footer">\\n                  <button type="button" class="btn btn-default" data-dismiss="modal">\', escape=False)\n    response.write(T(\'Close\'))\n    response.write(\'</button>\\n                  <a href="\', escape=False)\n    response.write(URL(\'manager\', \'remove_image\', args=[mRow.id]))\n    response.write(\'" class="btn btn-danger">\', escape=False)\n    response.write(T(\'Remove\'))\n    response.write(\'</a>\\n                </div>\\n              </div>\\n            </div>\\n          </div>\\n        \', escape=False)\n    pass\nresponse.write(\'\\n\\n</div>\\n\', escape=False)\nresponse.write(\'\\n        </div>\\n        \', escape=False)\nresponse.write(\'\\n      </div>\\n\\n      \', escape=False)\nif right_sidebar_enabled:\n    response.write(\'\\n        <div class="col-md-3">\\n            \', escape=False)\n    response.write(\'\\n            <h3>Right Sidebar</h3>\\n            <p></p>\\n            \', escape=False)\n    response.write(\'\\n        </div>\\n      \', escape=False)\n    pass\nresponse.write(\'\\n\\n    </div>\\n\\n\\n\\n    <footer>\\n        <div class="container">\\n            <div class="row">\\n                <div class="col-lg-12 text-center">\\n                    <p>\', escape=False)\nresponse.write(T(\'Copyright\'))\nresponse.write(\' &#169; \', escape=False)\nresponse.write(request.now.year)\nresponse.write(\' - \', escape=False)\nresponse.write(T(\'Powered by\'))\nresponse.write(\' <a href="http://www.ad-media.tv/">AD-MEDIA</a> </p>\\n                </div>\\n            </div>\\n        </div>\\n    </footer>\\n\\n    <!-- jQuery -->\\n    <script src="\', escape=False)\nresponse.write(URL(\'static\', \'js/jquery.js\'))\nresponse.write(\'"></script>\\n\\n    <!-- Bootstrap Core JavaScript -->\\n    <script src="\', escape=False)\nresponse.write(URL(\'static\', \'js/bootstrap.min.js\'))\nresponse.write(\'"></script>\\n\\n    <!-- Bootstrap List -->\\n    <script src="\', escape=False)\nresponse.write(URL(\'static\', \'js/bootstrap-list.js\'))\nresponse.write(\'"></script>\\n\\n    <!-- Script to Activate the Carousel -->\\n    <script>\\n    $(\\\'.carousel\\\').carousel({\\n        interval: 5000 //changes the speed\\n    })\\n    </script>\\n\\n    <script>\\n        $(\\\'#searchlist\\\').btsListFilter(\\\'#searchinput\\\', {itemChild: \\\'span\\\'});\\n    </script>\\n\\n\\n\\n</body>\\n\\n</html>\\n\', escape=False)'
p7
sS'snapshot'
p8
(dp9
sS'traceback'
p10
S'Traceback (most recent call last):\n  File "/Users/fabiofilho/Documents/Deployment/Web2Py/web2py/gluon/restricted.py", line 227, in restricted\n    exec ccode in environment\n  File "/Users/fabiofilho/Documents/Deployment/Web2Py/web2py/applications/perimoveis/views/product/index.html", line 139, in <module>\n  File "/Users/fabiofilho/Documents/Deployment/Web2Py/web2py/gluon/packages/dal/pydal/objects.py", line 90, in __getattr__\n    raise AttributeError\nAttributeError\n'
p11
s.